target datalayout = "e-m:e-p270:32:32-p271:32:32-p272:64:64-i64:64-i128:128-f80:128-n8:16:32:64-S128"
target triple = "x86_64-pc-linux-gnu"

%class.V3ListLinks = type { ptr, ptr }
%class.V3Graph = type { ptr, %class.V3List.1 }
%class.V3List.1 = type { ptr, ptr }

; Function Attrs: alwaysinline mustprogress uwtable
define linkonce_odr dso_local noundef nonnull align 8 dereferenceable(16) ptr @_ZN6V3ListI13V3GraphVertexXadL_ZNS0_5linksEvEES0_E7toLinksEPKS0_(ptr noundef %0) #8 comdat align 2 {
  %2 = alloca ptr, align 8
  store ptr %0, ptr %2, align 8, !tbaa !4
  %3 = load ptr, ptr %2, align 8, !tbaa !4
  %4 = getelementptr inbounds i8, ptr %3, i64 0
  br i1 false, label %5, label %9

5:                                                ; preds = %1
  %6 = load ptr, ptr %4, align 8, !tbaa !11
  %7 = getelementptr i8, ptr %6, i64 sub (i64 ptrtoint (ptr @_ZN13V3GraphVertex5linksEv to i64), i64 1), !nosanitize !65
  %8 = load ptr, ptr %7, align 8, !nosanitize !65
  br label %10

9:                                                ; preds = %1
  br label %10

10:                                               ; preds = %9, %5
  %11 = phi ptr [ %8, %5 ], [ @_ZN13V3GraphVertex5linksEv, %9 ]
  %12 = call noundef nonnull align 8 dereferenceable(16) ptr %11(ptr noundef nonnull align 8 dereferenceable(80) %4)
  ret ptr %12
}

; Function Attrs: mustprogress uwtable
define linkonce_odr dso_local void @_ZN6V3ListI13V3GraphVertexXadL_ZNS0_5linksEvEES0_E6unlinkEPKS0_(ptr noundef nonnull align 8 dereferenceable(16) %0, ptr noundef %1) #4 comdat align 2 {
  %3 = alloca ptr, align 8
  %4 = alloca ptr, align 8
  %5 = alloca ptr, align 8
  store ptr %0, ptr %3, align 8, !tbaa !36
  store ptr %1, ptr %4, align 8, !tbaa !4
  %6 = load ptr, ptr %3, align 8
  call void @llvm.lifetime.start.p0(i64 8, ptr %5) #3
  %7 = load ptr, ptr %4, align 8, !tbaa !4
  %8 = call noundef nonnull align 8 dereferenceable(16) ptr @_ZN6V3ListI13V3GraphVertexXadL_ZNS0_5linksEvEES0_E7toLinksEPKS0_(ptr noundef %7)
  store ptr %8, ptr %5, align 8, !tbaa !24
  %9 = load ptr, ptr %5, align 8, !tbaa !24
  %10 = getelementptr inbounds nuw %class.V3ListLinks, ptr %9, i32 0, i32 0
  %11 = load ptr, ptr %10, align 8, !tbaa !26
  %12 = icmp ne ptr %11, null
  br i1 %12, label %13, label %22

13:                                               ; preds = %2
  %14 = load ptr, ptr %5, align 8, !tbaa !24
  %15 = getelementptr inbounds nuw %class.V3ListLinks, ptr %14, i32 0, i32 1
  %16 = load ptr, ptr %15, align 8, !tbaa !27
  %17 = load ptr, ptr %5, align 8, !tbaa !24
  %18 = getelementptr inbounds nuw %class.V3ListLinks, ptr %17, i32 0, i32 0
  %19 = load ptr, ptr %18, align 8, !tbaa !26
  %20 = call noundef nonnull align 8 dereferenceable(16) ptr @_ZN6V3ListI13V3GraphVertexXadL_ZNS0_5linksEvEES0_E7toLinksEPKS0_(ptr noundef %19)
  %21 = getelementptr inbounds nuw %class.V3ListLinks, ptr %20, i32 0, i32 1
  store ptr %16, ptr %21, align 8, !tbaa !27
  br label %22

22:                                               ; preds = %13, %2
  %23 = load ptr, ptr %5, align 8, !tbaa !24
  %24 = getelementptr inbounds nuw %class.V3ListLinks, ptr %23, i32 0, i32 1
  %25 = load ptr, ptr %24, align 8, !tbaa !27
  %26 = icmp ne ptr %25, null
  br i1 %26, label %27, label %36

27:                                               ; preds = %22
  %28 = load ptr, ptr %5, align 8, !tbaa !24
  %29 = getelementptr inbounds nuw %class.V3ListLinks, ptr %28, i32 0, i32 0
  %30 = load ptr, ptr %29, align 8, !tbaa !26
  %31 = load ptr, ptr %5, align 8, !tbaa !24
  %32 = getelementptr inbounds nuw %class.V3ListLinks, ptr %31, i32 0, i32 1
  %33 = load ptr, ptr %32, align 8, !tbaa !27
  %34 = call noundef nonnull align 8 dereferenceable(16) ptr @_ZN6V3ListI13V3GraphVertexXadL_ZNS0_5linksEvEES0_E7toLinksEPKS0_(ptr noundef %33)
  %35 = getelementptr inbounds nuw %class.V3ListLinks, ptr %34, i32 0, i32 0
  store ptr %30, ptr %35, align 8, !tbaa !26
  br label %36

36:                                               ; preds = %27, %22
  %37 = getelementptr inbounds nuw %class.V3List.1, ptr %6, i32 0, i32 0
  %38 = load ptr, ptr %37, align 8, !tbaa !40
  %39 = load ptr, ptr %4, align 8, !tbaa !4
  %40 = icmp eq ptr %38, %39
  br i1 %40, label %41, label %46

41:                                               ; preds = %36
  %42 = load ptr, ptr %5, align 8, !tbaa !24
  %43 = getelementptr inbounds nuw %class.V3ListLinks, ptr %42, i32 0, i32 0
  %44 = load ptr, ptr %43, align 8, !tbaa !26
  %45 = getelementptr inbounds nuw %class.V3List.1, ptr %6, i32 0, i32 0
  store ptr %44, ptr %45, align 8, !tbaa !40
  br label %46

46:                                               ; preds = %41, %36
  %47 = getelementptr inbounds nuw %class.V3List.1, ptr %6, i32 0, i32 1
  %48 = load ptr, ptr %47, align 8, !tbaa !38
  %49 = load ptr, ptr %4, align 8, !tbaa !4
  %50 = icmp eq ptr %48, %49
  br i1 %50, label %51, label %56

51:                                               ; preds = %46
  %52 = load ptr, ptr %5, align 8, !tbaa !24
  %53 = getelementptr inbounds nuw %class.V3ListLinks, ptr %52, i32 0, i32 1
  %54 = load ptr, ptr %53, align 8, !tbaa !27
  %55 = getelementptr inbounds nuw %class.V3List.1, ptr %6, i32 0, i32 1
  store ptr %54, ptr %55, align 8, !tbaa !38
  br label %56

56:                                               ; preds = %51, %46
  %57 = load ptr, ptr %5, align 8, !tbaa !24
  %58 = getelementptr inbounds nuw %class.V3ListLinks, ptr %57, i32 0, i32 1
  store ptr null, ptr %58, align 8, !tbaa !27
  %59 = load ptr, ptr %5, align 8, !tbaa !24
  %60 = getelementptr inbounds nuw %class.V3ListLinks, ptr %59, i32 0, i32 0
  store ptr null, ptr %60, align 8, !tbaa !26
  call void @llvm.lifetime.end.p0(i64 8, ptr %5) #3
  ret void
}

; Function Attrs: mustprogress uwtable
define dso_local void @_ZN13V3GraphVertex12unlinkDeleteEP7V3Graph(ptr noundef nonnull align 8 dereferenceable(80) %0, ptr noundef %1) #4 align 2 {
  %3 = alloca ptr, align 8
  %4 = alloca ptr, align 8
  store ptr %0, ptr %3, align 8, !tbaa !4
  store ptr %1, ptr %4, align 8, !tbaa !9
  %5 = load ptr, ptr %3, align 8
  %6 = load ptr, ptr %4, align 8, !tbaa !9
  call void @_ZN13V3GraphVertex11unlinkEdgesEP7V3Graph(ptr noundef nonnull align 8 dereferenceable(80) %5, ptr noundef %6)
  %7 = load ptr, ptr %4, align 8, !tbaa !9
  %8 = getelementptr inbounds nuw %class.V3Graph, ptr %7, i32 0, i32 1
  call void @_ZN6V3ListI13V3GraphVertexXadL_ZNS0_5linksEvEES0_E6unlinkEPKS0_(ptr noundef nonnull align 8 dereferenceable(16) %8, ptr noundef %5)
  %9 = icmp eq ptr %5, null
  br i1 %9, label %14, label %10

10:                                               ; preds = %2
  %11 = load ptr, ptr %5, align 8, !tbaa !11
  %12 = getelementptr inbounds ptr, ptr %11, i64 3
  %13 = load ptr, ptr %12, align 8
  call void %13(ptr noundef nonnull align 8 dereferenceable(80) %5) #3
  br label %14

14:                                               ; preds = %10, %2
  ret void
}