; Function Attrs: mustprogress uwtable
define dso_local void @_ZN13V3GraphVertex12unlinkDeleteEP7V3Graph(ptr noundef nonnull align 8 dereferenceable(80) %0, ptr noundef captures(none) %1) #4 align 2 {
  tail call void @_ZN13V3GraphVertex11unlinkEdgesEP7V3Graph(ptr noundef nonnull align 8 dereferenceable(80) %0, ptr poison)
  %3 = getelementptr inbounds nuw i8, ptr %1, i64 8
  %4 = getelementptr inbounds nuw i8, ptr %0, i64 8
  %5 = load ptr, ptr %4, align 8, !tbaa !24
  %.not.i = icmp eq ptr %5, null
  %.phi.trans.insert.i = getelementptr inbounds nuw i8, ptr %0, i64 16
  %.pre.i = load ptr, ptr %.phi.trans.insert.i, align 8, !tbaa !23
  br i1 %.not.i, label %._crit_edge.i, label %6

6:                                                ; preds = %2
  %7 = getelementptr inbounds nuw i8, ptr %5, i64 16
  store ptr %.pre.i, ptr %7, align 8, !tbaa !23
  br label %._crit_edge.i

._crit_edge.i:                                    ; preds = %6, %2
  %.not15.i = icmp eq ptr %.pre.i, null
  br i1 %.not15.i, label %10, label %8

8:                                                ; preds = %._crit_edge.i
  %9 = getelementptr inbounds nuw i8, ptr %.pre.i, i64 8
  store ptr %5, ptr %9, align 8, !tbaa !24
  br label %10

10:                                               ; preds = %8, %._crit_edge.i
  %11 = load ptr, ptr %3, align 8, !tbaa !25
  %12 = icmp eq ptr %11, %0
  br i1 %12, label %13, label %15

13:                                               ; preds = %10
  %14 = load ptr, ptr %4, align 8, !tbaa !24
  store ptr %14, ptr %3, align 8, !tbaa !25
  br label %15

15:                                               ; preds = %13, %10
  %16 = getelementptr inbounds nuw i8, ptr %1, i64 16
  %17 = load ptr, ptr %16, align 8, !tbaa !21
  %18 = icmp eq ptr %17, %0
  br i1 %18, label %19, label %_ZN6V3ListI13V3GraphVertexXadL_ZNS0_5linksEvEES0_E6unlinkEPKS0_.exit

19:                                               ; preds = %15
  store ptr %.pre.i, ptr %16, align 8, !tbaa !21
  br label %_ZN6V3ListI13V3GraphVertexXadL_ZNS0_5linksEvEES0_E6unlinkEPKS0_.exit

_ZN6V3ListI13V3GraphVertexXadL_ZNS0_5linksEvEES0_E6unlinkEPKS0_.exit: ; preds = %15, %19
  tail call void @llvm.memset.p0.i64(ptr noundef nonnull align 8 dereferenceable(16) %4, i8 0, i64 16, i1 false)
  %20 = load ptr, ptr %0, align 8, !tbaa !4
  %21 = getelementptr inbounds nuw i8, ptr %20, i64 24
  %22 = load ptr, ptr %21, align 8
  tail call void %22(ptr noundef nonnull align 8 dereferenceable(80) %0) #27
  ret void
}